target datalayout = "e-m:e-p270:32:32-p271:32:32-p272:64:64-i64:64-i128:128-f80:128-n8:16:32:64-S128"
target triple = "x86_64-unknown-linux-gnu"

; Function Attrs: nounwind sspstrong uwtable
define internal ptr @bitmap_try_new(i64 noundef %nbits) #0 {
entry:
  %nbits.addr = alloca i64, align 8
  %len = alloca i64, align 8
  store i64 %nbits, ptr %nbits.addr, align 8
  %0 = load i64, ptr %nbits.addr, align 8
  %add = add i64 %0, 64
  %sub = sub i64 %add, 1
  %div = udiv i64 %sub, 64
  %mul = mul i64 %div, 8
  store i64 %mul, ptr %len, align 8
  %1 = load i64, ptr %len, align 8
  %call = call noalias ptr @g_try_malloc0(i64 noundef %1) #12
  ret ptr %call
}

; Function Attrs: nounwind sspstrong uwtable
define internal ptr @bitmap_new(i64 noundef %nbits) #0 {
entry:
  %nbits.addr = alloca i64, align 8
  %ptr = alloca ptr, align 8
  store i64 %nbits, ptr %nbits.addr, align 8
  %0 = load i64, ptr %nbits.addr, align 8
  %call = call ptr @bitmap_try_new(i64 noundef %0)
  store ptr %call, ptr %ptr, align 8
  %1 = load ptr, ptr %ptr, align 8
  %cmp = icmp eq ptr %1, null
  br i1 %cmp, label %if.then, label %if.end

if.then:                                          ; preds = %entry
  call void @abort() #10
  unreachable

if.end:                                           ; preds = %entry
  %2 = load ptr, ptr %ptr, align 8
  ret ptr %2
}